target datalayout = "e-m:e-p270:32:32-p271:32:32-p272:64:64-i64:64-i128:128-f80:128-n8:16:32:64-S128"
target triple = "x86_64-pc-linux-gnu"

%"class.icu_77::UnicodeString" = type { %"class.icu_77::Replaceable", %"union.icu_77::UnicodeString::StackBufferOrFields" }
%"class.icu_77::Replaceable" = type { %"class.icu_77::UObject" }
%"class.icu_77::UObject" = type { ptr }
%"union.icu_77::UnicodeString::StackBufferOrFields" = type { %struct.anon.0, [32 x i8] }
%struct.anon.0 = type { i16, i32, i32, ptr }

@stderr = external global ptr, align 8
@_ZL3out = internal global ptr null, align 8
@.str.24 = private unnamed_addr constant [6 x i8] c"UTF-8\00", align 1
@.str.39 = private unnamed_addr constant [28 x i8] c"Could not allocate memory!!\00", align 1
@.str.40 = private unnamed_addr constant [2 x i8] c"\0A\00", align 1

; Function Attrs: mustprogress nounwind uwtable
define internal void @_ZL4trimPPcPi(ptr noundef %0, ptr noundef %1) #0 {
  %3 = alloca ptr, align 8
  %4 = alloca ptr, align 8
  %5 = alloca ptr, align 8
  %6 = alloca i32, align 4
  %7 = alloca i32, align 4
  store ptr %0, ptr %3, align 8, !tbaa !78
  store ptr %1, ptr %4, align 8, !tbaa !81
  call void @llvm.lifetime.start.p0(i64 8, ptr %5) #12
  store ptr null, ptr %5, align 8, !tbaa !4
  call void @llvm.lifetime.start.p0(i64 4, ptr %6) #12
  store i32 0, ptr %6, align 4, !tbaa !9
  %8 = load ptr, ptr %3, align 8, !tbaa !78
  %9 = icmp eq ptr %8, null
  br i1 %9, label %14, label %10

10:                                               ; preds = %2
  %11 = load ptr, ptr %3, align 8, !tbaa !78
  %12 = load ptr, ptr %11, align 8, !tbaa !4
  %13 = icmp eq ptr %12, null
  br i1 %13, label %14, label %15

14:                                               ; preds = %10, %2
  store i32 1, ptr %7, align 4
  br label %45

15:                                               ; preds = %10
  %16 = load ptr, ptr %3, align 8, !tbaa !78
  %17 = load ptr, ptr %16, align 8, !tbaa !4
  store ptr %17, ptr %5, align 8, !tbaa !4
  %18 = load ptr, ptr %4, align 8, !tbaa !81
  %19 = load i32, ptr %18, align 4, !tbaa !9
  %20 = sub nsw i32 %19, 1
  store i32 %20, ptr %6, align 4, !tbaa !9
  br label %21

21:                                               ; preds = %38, %15
  %22 = load i32, ptr %6, align 4, !tbaa !9
  %23 = icmp sge i32 %22, 0
  br i1 %23, label %24, label %41

24:                                               ; preds = %21
  %25 = load ptr, ptr %5, align 8, !tbaa !4
  %26 = load i32, ptr %6, align 4, !tbaa !9
  %27 = sext i32 %26 to i64
  %28 = getelementptr inbounds i8, ptr %25, i64 %27
  %29 = load i8, ptr %28, align 1, !tbaa !14
  %30 = sext i8 %29 to i32
  switch i32 %30, label %36 [
    i32 42, label %31
    i32 32, label %31
    i32 10, label %31
    i32 13, label %31
  ]

31:                                               ; preds = %24, %24, %24, %24
  %32 = load ptr, ptr %5, align 8, !tbaa !4
  %33 = load i32, ptr %6, align 4, !tbaa !9
  %34 = sext i32 %33 to i64
  %35 = getelementptr inbounds i8, ptr %32, i64 %34
  store i8 0, ptr %35, align 1, !tbaa !14
  br label %38

36:                                               ; preds = %24
  br label %37

37:                                               ; preds = %36
  br label %41

38:                                               ; preds = %31
  %39 = load i32, ptr %6, align 4, !tbaa !9
  %40 = add nsw i32 %39, -1
  store i32 %40, ptr %6, align 4, !tbaa !9
  br label %21, !llvm.loop !95

41:                                               ; preds = %37, %21
  %42 = load i32, ptr %6, align 4, !tbaa !9
  %43 = add nsw i32 %42, 1
  %44 = load ptr, ptr %4, align 8, !tbaa !81
  store i32 %43, ptr %44, align 4, !tbaa !9
  store i32 0, ptr %7, align 4
  br label %45

45:                                               ; preds = %41, %14
  call void @llvm.lifetime.end.p0(i64 4, ptr %6) #12
  call void @llvm.lifetime.end.p0(i64 8, ptr %5) #12
  %46 = load i32, ptr %7, align 4
  switch i32 %46, label %48 [
    i32 0, label %47
    i32 1, label %47
  ]

47:                                               ; preds = %45, %45
  ret void

48:                                               ; preds = %45
  unreachable
}

; Function Attrs: inlinehint mustprogress nounwind uwtable
define internal noundef signext i8 @_ZL9U_SUCCESS10UErrorCode(i32 noundef %0) #3 {
  %2 = alloca i32, align 4
  store i32 %0, ptr %2, align 4, !tbaa !19
  %3 = load i32, ptr %2, align 4, !tbaa !19
  %4 = icmp sle i32 %3, 0
  %5 = zext i1 %4 to i8
  ret i8 %5
}

; Function Attrs: inlinehint mustprogress nounwind uwtable
define internal noundef signext i8 @_ZL9U_FAILURE10UErrorCode(i32 noundef %0) #3 {
  %2 = alloca i32, align 4
  store i32 %0, ptr %2, align 4, !tbaa !19
  %3 = load i32, ptr %2, align 4, !tbaa !19
  %4 = icmp sgt i32 %3, 0
  %5 = zext i1 %4 to i8
  ret i8 %5
}

; Function Attrs: mustprogress uwtable
define internal void @_ZL5printPDsiPKcS1_P10UErrorCode(ptr noundef %0, i32 noundef %1, ptr noundef %2, ptr noundef %3, ptr noundef %4) #2 personality ptr @__gxx_personality_v0 {
  %6 = alloca ptr, align 8
  %7 = alloca i32, align 4
  %8 = alloca ptr, align 8
  %9 = alloca ptr, align 8
  %10 = alloca ptr, align 8
  %11 = alloca i32, align 4
  %12 = alloca ptr, align 8
  %13 = alloca i32, align 4
  %14 = alloca i32, align 4
  %15 = alloca %"class.icu_77::UnicodeString", align 8
  %16 = alloca ptr, align 8
  %17 = alloca i32, align 4
  %18 = alloca %"class.icu_77::UnicodeString", align 8
  %19 = alloca %"class.icu_77::UnicodeString", align 8
  %20 = alloca %"class.icu_77::UnicodeString", align 8
  store ptr %0, ptr %6, align 8, !tbaa !82
  store i32 %1, ptr %7, align 4, !tbaa !9
  store ptr %2, ptr %8, align 8, !tbaa !4
  store ptr %3, ptr %9, align 8, !tbaa !4
  store ptr %4, ptr %10, align 8, !tbaa !18
  call void @llvm.lifetime.start.p0(i64 4, ptr %11) #12
  %21 = load i32, ptr %7, align 4, !tbaa !9
  %22 = mul nsw i32 %21, 4
  store i32 %22, ptr %11, align 4, !tbaa !9
  call void @llvm.lifetime.start.p0(i64 8, ptr %12) #12
  store ptr null, ptr %12, align 8, !tbaa !4
  call void @llvm.lifetime.start.p0(i64 4, ptr %13) #12
  store i32 0, ptr %13, align 4, !tbaa !9
  %23 = load ptr, ptr %10, align 8, !tbaa !18
  %24 = load i32, ptr %23, align 4, !tbaa !19
  %25 = call noundef signext i8 @_ZL9U_FAILURE10UErrorCode(i32 noundef %24)
  %26 = icmp ne i8 %25, 0
  br i1 %26, label %27, label %28

27:                                               ; preds = %5
  store i32 1, ptr %14, align 4
  br label %81

28:                                               ; preds = %5
  %29 = load i32, ptr %11, align 4, !tbaa !9
  %30 = sext i32 %29 to i64
  %31 = call noalias ptr @uprv_malloc_77(i64 noundef %30) #14
  store ptr %31, ptr %12, align 8, !tbaa !4
  %32 = load ptr, ptr %12, align 8, !tbaa !4
  %33 = icmp eq ptr %32, null
  br i1 %33, label %34, label %37

34:                                               ; preds = %28
  %35 = load ptr, ptr @stderr, align 8, !tbaa !43
  %36 = call i32 (ptr, ptr, ...) @fprintf(ptr noundef %35, ptr noundef @.str.39) #12
  call void @exit(i32 noundef 7) #15
  unreachable

37:                                               ; preds = %28
  %38 = load i32, ptr %11, align 4, !tbaa !9
  %39 = load ptr, ptr %6, align 8, !tbaa !82
  %40 = load i32, ptr %7, align 4, !tbaa !9
  %41 = load ptr, ptr %10, align 8, !tbaa !18
  %42 = call noundef ptr @_ZL16convertAndEscapePPciPiPKDsiP10UErrorCode(ptr noundef %12, i32 noundef %38, ptr noundef %13, ptr noundef %39, i32 noundef %40, ptr noundef %41)
  store ptr %42, ptr %12, align 8, !tbaa !4
  %43 = load ptr, ptr %10, align 8, !tbaa !18
  %44 = load i32, ptr %43, align 4, !tbaa !19
  %45 = call noundef signext i8 @_ZL9U_SUCCESS10UErrorCode(i32 noundef %44)
  %46 = icmp ne i8 %45, 0
  br i1 %46, label %47, label %80

47:                                               ; preds = %37
  call void @_ZL4trimPPcPi(ptr noundef %12, ptr noundef %13)
  %48 = load ptr, ptr @_ZL3out, align 8, !tbaa !27
  %49 = load ptr, ptr %8, align 8, !tbaa !4
  call void @_ZN6icu_7713UnicodeStringC1EPKc(ptr noundef nonnull align 8 dereferenceable(64) %15, ptr noundef %49)
  %50 = invoke noundef i32 @_ZL15write_utf8_fileP11_FileStreamN6icu_7713UnicodeStringE(ptr noundef %48, ptr noundef %15)
          to label %51 unwind label %64

51:                                               ; preds = %47
  call void @_ZN6icu_7713UnicodeStringD1Ev(ptr noundef nonnull align 8 dereferenceable(64) %15) #12
  %52 = load ptr, ptr @_ZL3out, align 8, !tbaa !27
  %53 = load ptr, ptr %12, align 8, !tbaa !4
  %54 = load i32, ptr %13, align 4, !tbaa !9
  call void @_ZN6icu_7713UnicodeStringC1EPKciS2_(ptr noundef nonnull align 8 dereferenceable(64) %18, ptr noundef %53, i32 noundef %54, ptr noundef @.str.24)
  %55 = invoke noundef i32 @_ZL15write_utf8_fileP11_FileStreamN6icu_7713UnicodeStringE(ptr noundef %52, ptr noundef %18)
          to label %56 unwind label %68

56:                                               ; preds = %51
  call void @_ZN6icu_7713UnicodeStringD1Ev(ptr noundef nonnull align 8 dereferenceable(64) %18) #12
  %57 = load ptr, ptr @_ZL3out, align 8, !tbaa !27
  %58 = load ptr, ptr %9, align 8, !tbaa !4
  call void @_ZN6icu_7713UnicodeStringC1EPKc(ptr noundef nonnull align 8 dereferenceable(64) %19, ptr noundef %58)
  %59 = invoke noundef i32 @_ZL15write_utf8_fileP11_FileStreamN6icu_7713UnicodeStringE(ptr noundef %57, ptr noundef %19)
          to label %60 unwind label %72

60:                                               ; preds = %56
  call void @_ZN6icu_7713UnicodeStringD1Ev(ptr noundef nonnull align 8 dereferenceable(64) %19) #12
  %61 = load ptr, ptr @_ZL3out, align 8, !tbaa !27
  call void @_ZN6icu_7713UnicodeStringC1EPKc(ptr noundef nonnull align 8 dereferenceable(64) %20, ptr noundef @.str.40)
  %62 = invoke noundef i32 @_ZL15write_utf8_fileP11_FileStreamN6icu_7713UnicodeStringE(ptr noundef %61, ptr noundef %20)
          to label %63 unwind label %76

63:                                               ; preds = %60
  call void @_ZN6icu_7713UnicodeStringD1Ev(ptr noundef nonnull align 8 dereferenceable(64) %20) #12
  br label %80

64:                                               ; preds = %47
  %65 = landingpad { ptr, i32 }
          cleanup
  %66 = extractvalue { ptr, i32 } %65, 0
  store ptr %66, ptr %16, align 8
  %67 = extractvalue { ptr, i32 } %65, 1
  store i32 %67, ptr %17, align 4
  call void @_ZN6icu_7713UnicodeStringD1Ev(ptr noundef nonnull align 8 dereferenceable(64) %15) #12
  br label %84

68:                                               ; preds = %51
  %69 = landingpad { ptr, i32 }
          cleanup
  %70 = extractvalue { ptr, i32 } %69, 0
  store ptr %70, ptr %16, align 8
  %71 = extractvalue { ptr, i32 } %69, 1
  store i32 %71, ptr %17, align 4
  call void @_ZN6icu_7713UnicodeStringD1Ev(ptr noundef nonnull align 8 dereferenceable(64) %18) #12
  br label %84

72:                                               ; preds = %56
  %73 = landingpad { ptr, i32 }
          cleanup
  %74 = extractvalue { ptr, i32 } %73, 0
  store ptr %74, ptr %16, align 8
  %75 = extractvalue { ptr, i32 } %73, 1
  store i32 %75, ptr %17, align 4
  call void @_ZN6icu_7713UnicodeStringD1Ev(ptr noundef nonnull align 8 dereferenceable(64) %19) #12
  br label %84

76:                                               ; preds = %60
  %77 = landingpad { ptr, i32 }
          cleanup
  %78 = extractvalue { ptr, i32 } %77, 0
  store ptr %78, ptr %16, align 8
  %79 = extractvalue { ptr, i32 } %77, 1
  store i32 %79, ptr %17, align 4
  call void @_ZN6icu_7713UnicodeStringD1Ev(ptr noundef nonnull align 8 dereferenceable(64) %20) #12
  br label %84

80:                                               ; preds = %63, %37
  store i32 0, ptr %14, align 4
  br label %81

81:                                               ; preds = %80, %27
  call void @llvm.lifetime.end.p0(i64 4, ptr %13) #12
  call void @llvm.lifetime.end.p0(i64 8, ptr %12) #12
  call void @llvm.lifetime.end.p0(i64 4, ptr %11) #12
  %82 = load i32, ptr %14, align 4
  switch i32 %82, label %90 [
    i32 0, label %83
    i32 1, label %83
  ]

83:                                               ; preds = %81, %81
  ret void

84:                                               ; preds = %76, %72, %68, %64
  call void @llvm.lifetime.end.p0(i64 4, ptr %13) #12
  call void @llvm.lifetime.end.p0(i64 8, ptr %12) #12
  call void @llvm.lifetime.end.p0(i64 4, ptr %11) #12
  br label %85

85:                                               ; preds = %84
  %86 = load ptr, ptr %16, align 8
  %87 = load i32, ptr %17, align 4
  %88 = insertvalue { ptr, i32 } poison, ptr %86, 0
  %89 = insertvalue { ptr, i32 } %88, i32 %87, 1
  resume { ptr, i32 } %89

90:                                               ; preds = %81
  unreachable
}