; Function Attrs: mustprogress uwtable
define internal fastcc void @_ZL5printPDsiPKcS1_P10UErrorCode(ptr noundef %0, i32 noundef range(i32 1, -2147483648) %1, ptr noundef %2, ptr noundef %3, ptr noundef %4) unnamed_addr #2 personality ptr @__gxx_personality_v0 {
  %6 = alloca i32, align 4
  %7 = alloca %"class.icu_77::UnicodeString", align 8
  %8 = alloca %"class.icu_77::UnicodeString", align 8
  %9 = alloca %"class.icu_77::UnicodeString", align 8
  %10 = alloca %"class.icu_77::UnicodeString", align 8
  %11 = shl nsw i32 %1, 2
  call void @llvm.lifetime.start.p0(i64 4, ptr nonnull %6) #13
  store i32 0, ptr %6, align 4, !tbaa !6
  %12 = load i32, ptr %4, align 4, !tbaa !13
  %13 = icmp slt i32 %12, 1
  br i1 %13, label %14, label %53

14:                                               ; preds = %5
  %15 = zext nneg i32 %11 to i64
  %16 = tail call noalias ptr @uprv_malloc_77(i64 noundef %15) #14
  %17 = icmp eq ptr %16, null
  br i1 %17, label %18, label %21

18:                                               ; preds = %14
  %19 = load ptr, ptr @stderr, align 8, !tbaa !35
  %20 = tail call i64 @fwrite(ptr nonnull @.str.39, i64 27, i64 1, ptr %19) #19
  tail call void @exit(i32 noundef 7) #17
  unreachable

21:                                               ; preds = %14
  %22 = call fastcc noundef ptr @_ZL16convertAndEscapePPciPiPKDsiP10UErrorCode(ptr nonnull %16, i32 noundef %11, ptr noundef %6, ptr noundef %0, i32 noundef %1, ptr noundef nonnull %4)
  %23 = load i32, ptr %4, align 4, !tbaa !13
  %24 = icmp sgt i32 %23, 0
  br i1 %24, label %53, label %25

25:                                               ; preds = %21
  %26 = icmp eq ptr %22, null
  br i1 %26, label %_ZL4trimPPcPi.exit, label %27

27:                                               ; preds = %25
  %28 = load i32, ptr %6, align 4, !tbaa !6
  %29 = icmp sgt i32 %28, 0
  br i1 %29, label %.lr.ph.preheader.i, label %._crit_edge.i

.lr.ph.preheader.i:                               ; preds = %27
  %30 = zext nneg i32 %28 to i64
  br label %.lr.ph.i

.lr.ph.i:                                         ; preds = %33, %.lr.ph.preheader.i
  %indvars.iv.i = phi i64 [ %30, %.lr.ph.preheader.i ], [ %indvars.iv.next.i, %33 ]
  %indvars.iv.next.i = add nsw i64 %indvars.iv.i, -1
  %31 = getelementptr inbounds nuw i8, ptr %22, i64 %indvars.iv.next.i
  %32 = load i8, ptr %31, align 1, !tbaa !11
  switch i8 %32, label %._crit_edge.loopexit.split.loop.exit.i [
    i8 42, label %33
    i8 32, label %33
    i8 10, label %33
    i8 13, label %33
  ]

33:                                               ; preds = %.lr.ph.i, %.lr.ph.i, %.lr.ph.i, %.lr.ph.i
  store i8 0, ptr %31, align 1, !tbaa !11
  %34 = icmp samesign ugt i64 %indvars.iv.i, 1
  br i1 %34, label %.lr.ph.i, label %._crit_edge.i, !llvm.loop !70

._crit_edge.loopexit.split.loop.exit.i:           ; preds = %.lr.ph.i
  %35 = trunc nuw nsw i64 %indvars.iv.i to i32
  br label %._crit_edge.i

._crit_edge.i:                                    ; preds = %33, %._crit_edge.loopexit.split.loop.exit.i, %27
  %.0.in.lcssa.i = phi i32 [ %28, %27 ], [ %35, %._crit_edge.loopexit.split.loop.exit.i ], [ 0, %33 ]
  store i32 %.0.in.lcssa.i, ptr %6, align 4, !tbaa !6
  br label %_ZL4trimPPcPi.exit

_ZL4trimPPcPi.exit:                               ; preds = %25, %._crit_edge.i
  %36 = load ptr, ptr @_ZL3out, align 8, !tbaa !21
  call void @_ZN6icu_7713UnicodeStringC1EPKc(ptr noundef nonnull align 8 dereferenceable(64) %7, ptr noundef %2)
  invoke fastcc void @_ZL15write_utf8_fileP11_FileStreamN6icu_7713UnicodeStringE(ptr noundef %36, ptr noundef %7)
          to label %37 unwind label %45

37:                                               ; preds = %_ZL4trimPPcPi.exit
  call void @_ZN6icu_7713UnicodeStringD1Ev(ptr noundef nonnull align 8 dereferenceable(64) %7) #13
  %38 = load ptr, ptr @_ZL3out, align 8, !tbaa !21
  %39 = load i32, ptr %6, align 4, !tbaa !6
  call void @_ZN6icu_7713UnicodeStringC1EPKciS2_(ptr noundef nonnull align 8 dereferenceable(64) %8, ptr noundef %22, i32 noundef %39, ptr noundef nonnull @.str.24)
  invoke fastcc void @_ZL15write_utf8_fileP11_FileStreamN6icu_7713UnicodeStringE(ptr noundef %38, ptr noundef %8)
          to label %40 unwind label %47

40:                                               ; preds = %37
  call void @_ZN6icu_7713UnicodeStringD1Ev(ptr noundef nonnull align 8 dereferenceable(64) %8) #13
  %41 = load ptr, ptr @_ZL3out, align 8, !tbaa !21
  call void @_ZN6icu_7713UnicodeStringC1EPKc(ptr noundef nonnull align 8 dereferenceable(64) %9, ptr noundef %3)
  invoke fastcc void @_ZL15write_utf8_fileP11_FileStreamN6icu_7713UnicodeStringE(ptr noundef %41, ptr noundef %9)
          to label %42 unwind label %49

42:                                               ; preds = %40
  call void @_ZN6icu_7713UnicodeStringD1Ev(ptr noundef nonnull align 8 dereferenceable(64) %9) #13
  %43 = load ptr, ptr @_ZL3out, align 8, !tbaa !21
  call void @_ZN6icu_7713UnicodeStringC1EPKc(ptr noundef nonnull align 8 dereferenceable(64) %10, ptr noundef nonnull @.str.40)
  invoke fastcc void @_ZL15write_utf8_fileP11_FileStreamN6icu_7713UnicodeStringE(ptr noundef %43, ptr noundef %10)
          to label %44 unwind label %51

44:                                               ; preds = %42
  call void @_ZN6icu_7713UnicodeStringD1Ev(ptr noundef nonnull align 8 dereferenceable(64) %10) #13
  br label %53

45:                                               ; preds = %_ZL4trimPPcPi.exit
  %46 = landingpad { ptr, i32 }
          cleanup
  br label %54

47:                                               ; preds = %37
  %48 = landingpad { ptr, i32 }
          cleanup
  br label %54

49:                                               ; preds = %40
  %50 = landingpad { ptr, i32 }
          cleanup
  br label %54

51:                                               ; preds = %42
  %52 = landingpad { ptr, i32 }
          cleanup
  br label %54

53:                                               ; preds = %21, %44, %5
  call void @llvm.lifetime.end.p0(i64 4, ptr nonnull %6) #13
  ret void

54:                                               ; preds = %51, %49, %47, %45
  %.sink = phi ptr [ %10, %51 ], [ %9, %49 ], [ %8, %47 ], [ %7, %45 ]
  %.pn = phi { ptr, i32 } [ %52, %51 ], [ %50, %49 ], [ %48, %47 ], [ %46, %45 ]
  call void @_ZN6icu_7713UnicodeStringD1Ev(ptr noundef nonnull align 8 dereferenceable(64) %.sink) #13
  call void @llvm.lifetime.end.p0(i64 4, ptr nonnull %6) #13
  resume { ptr, i32 } %.pn
}